ccopy_reg
_reconstructor
p1
(cpyh
table
p2
c__builtin__
list
p3
(lp4
g1
(cpyh
tr
p5
g3
(lp6
g1
(cpyh
td
p7
g3
(lp8
g1
(g2
g3
(lp9
g1
(g5
g3
(lp10
g1
(g7
g3
(lp11
S'ApachePass'
p12
atRp13
(dp14
S'isSeq'
p15
I00
sS'attributes'
p16
(dp17
S'colspan'
p18
I2
sS'bgColor'
p19
S'#E9DEDE'
p20
ssS'content'
p21
g12
sS'id'
p22
S'td'
p23
sbatRp24
(dp25
g15
I00
sg16
(dp26
sg23
g13
sg22
S'tr'
p27
sbag1
(g5
g3
(lp28
g1
(cpyh
Tag
p29
g3
(lp30
g1
(g7
g3
(lp31
S'Intel DIMM Gen 1 Software Version'
p32
atRp33
(dp34
g15
I00
sg16
(dp35
sg21
g32
sg22
g23
sbag1
(g7
g3
(lp36
S' 01.00.01.1004'
p37
atRp38
(dp39
g15
I00
sg16
(dp40
sg21
g37
sg22
S'td_001'
p41
sbatRp42
(dp43
g15
I01
sg16
(dp44
sg23
g33
sg22
S'sequence'
p45
sS'td_001'
p46
g38
sbatRp47
(dp48
g15
I00
sg16
(dp49
sg22
S'tr_001'
p50
sg45
g42
sbag1
(g5
g3
(lp51
g1
(g29
g3
(lp52
g1
(g7
g3
(lp53
S'Total Capacity'
p54
atRp55
(dp56
g15
I00
sg16
(dp57
sg21
g54
sg22
g23
sbag1
(g7
g3
(lp58
S' 63.25 GiB'
p59
atRp60
(dp61
g15
I00
sg16
(dp62
sg21
g59
sg22
S'td_001'
p63
sbatRp64
(dp65
g15
I01
sg16
(dp66
sg23
g55
sg22
g45
sg46
g60
sbatRp67
(dp68
g15
I00
sg16
(dp69
sg22
S'tr_002'
p70
sg45
g64
sbag1
(g5
g3
(lp71
g1
(g29
g3
(lp72
g1
(g7
g3
(lp73
S'Memory Capacity'
p74
atRp75
(dp76
g15
I00
sg16
(dp77
sg21
g74
sg22
g23
sbag1
(g7
g3
(lp78
S' 30.94 GiB'
p79
atRp80
(dp81
g15
I00
sg16
(dp82
sg21
g79
sg22
S'td_001'
p83
sbatRp84
(dp85
g15
I01
sg16
(dp86
sg23
g75
sg22
g45
sg46
g80
sbatRp87
(dp88
g15
I00
sg16
(dp89
sg22
S'tr_003'
p90
sg45
g84
sbag1
(g5
g3
(lp91
g1
(g29
g3
(lp92
g1
(g7
g3
(lp93
S'App Direct Capacity'
p94
atRp95
(dp96
g15
I00
sg16
(dp97
sg21
g94
sg22
g23
sbag1
(g7
g3
(lp98
S' 32.00 GiB'
p99
atRp100
(dp101
g15
I00
sg16
(dp102
sg21
g99
sg22
S'td_001'
p103
sbatRp104
(dp105
g15
I01
sg16
(dp106
sg23
g95
sg22
g45
sg46
g100
sbatRp107
(dp108
g15
I00
sg16
(dp109
sg22
S'tr_004'
p110
sg45
g104
sbag1
(g5
g3
(lp111
g1
(g29
g3
(lp112
g1
(g7
g3
(lp113
S'Un-configured Capacity'
p114
atRp115
(dp116
g15
I00
sg16
(dp117
sg21
g114
sg22
g23
sbag1
(g7
g3
(lp118
S' 32.06 GiB'
p119
atRp120
(dp121
g15
I00
sg16
(dp122
sg21
g119
sg22
S'td_001'
p123
sbatRp124
(dp125
g15
I01
sg16
(dp126
sg23
g115
sg22
g45
sg46
g120
sbatRp127
(dp128
g15
I00
sg16
(dp129
sg22
S'tr_005'
p130
sg45
g124
sbag1
(g5
g3
(lp131
g1
(g29
g3
(lp132
g1
(g7
g3
(lp133
S'Inaccessible Capacity'
p134
atRp135
(dp136
g15
I00
sg16
(dp137
sg21
g134
sg22
g23
sbag1
(g7
g3
(lp138
S' 0 B'
p139
atRp140
(dp141
g15
I00
sg16
(dp142
sg21
g139
sg22
S'td_001'
p143
sbatRp144
(dp145
g15
I01
sg16
(dp146
sg23
g135
sg22
g45
sg46
g140
sbatRp147
(dp148
g15
I00
sg16
(dp149
sg22
S'tr_006'
p150
sg45
g144
sbag1
(g5
g3
(lp151
g1
(g29
g3
(lp152
g1
(g7
g3
(lp153
S'Reserved Capacity'
p154
atRp155
(dp156
g15
I00
sg16
(dp157
sg21
g154
sg22
g23
sbag1
(g7
g3
(lp158
S' 251.75 MiB'
p159
atRp160
(dp161
g15
I00
sg16
(dp162
sg21
g159
sg22
S'td_001'
p163
sbatRp164
(dp165
g15
I01
sg16
(dp166
sg23
g155
sg22
g45
sg46
g160
sbatRp167
(dp168
g15
I00
sg16
(dp169
sg22
S'tr_007'
p170
sg45
g164
sbag1
(g5
g3
(lp171
g1
(g29
g3
(lp172
g1
(g7
g3
(lp173
S'Memory Modes'
p174
atRp175
(dp176
g15
I00
sg16
(dp177
sg21
g174
sg22
g23
sbag1
(g7
g3
(lp178
S' 1LM ; Memory Mode ; Storage Mode ; App Direct'
p179
atRp180
(dp181
g15
I00
sg16
(dp182
sg21
g179
sg22
S'td_001'
p183
sbatRp184
(dp185
g15
I01
sg16
(dp186
sg23
g175
sg22
g45
sg46
g180
sbatRp187
(dp188
g15
I00
sg16
(dp189
sg22
S'tr_008'
p190
sg45
g184
sbag1
(g5
g3
(lp191
g1
(g29
g3
(lp192
g1
(g7
g3
(lp193
S'Replication Support'
p194
atRp195
(dp196
g15
I00
sg16
(dp197
sg21
g194
sg22
g23
sbag1
(g7
g3
(lp198
S' App Direct Mirroring'
p199
atRp200
(dp201
g15
I00
sg16
(dp202
sg21
g199
sg22
S'td_001'
p203
sbatRp204
(dp205
g15
I01
sg16
(dp206
sg23
g195
sg22
g45
sg46
g200
sbatRp207
(dp208
g15
I00
sg16
(dp209
sg22
S'tr_009'
p210
sg45
g204
sbag1
(g5
g3
(lp211
g1
(g29
g3
(lp212
g1
(g7
g3
(lp213
S'Reliability  Support'
p214
atRp215
(dp216
g15
I00
sg16
(dp217
sg21
g214
sg22
g23
sbag1
(g7
g3
(lp218
S' Not Available'
p219
atRp220
(dp221
g15
I00
sg16
(dp222
sg21
g219
sg22
S'td_001'
p223
sbatRp224
(dp225
g15
I01
sg16
(dp226
sg23
g215
sg22
g45
sg46
g220
sbatRp227
(dp228
g15
I00
sg16
(dp229
sg22
S'tr_010'
p230
sg45
g224
sbag1
(g5
g3
(lp231
g1
(g29
g3
(lp232
g1
(g7
g3
(lp233
S'Alignment'
p234
atRp235
(dp236
g15
I00
sg16
(dp237
sg21
g234
sg22
g23
sbag1
(g7
g3
(lp238
S' 30'
p239
atRp240
(dp241
g15
I00
sg16
(dp242
sg21
g239
sg22
S'td_001'
p243
sbatRp244
(dp245
g15
I01
sg16
(dp246
sg23
g235
sg22
g45
sg46
g240
sbatRp247
(dp248
g15
I00
sg16
(dp249
sg22
S'tr_011'
p250
sg45
g244
sbag1
(g5
g3
(lp251
g1
(g29
g3
(lp252
g1
(g7
g3
(lp253
S'Channel Interleave Support'
p254
atRp255
(dp256
g15
I00
sg16
(dp257
sg21
g254
sg22
g23
sbag1
(g7
g3
(lp258
S' 12'
p259
atRp260
(dp261
g15
I00
sg16
(dp262
sg21
g259
sg22
S'td_001'
p263
sbatRp264
(dp265
g15
I01
sg16
(dp266
sg23
g255
sg22
g45
sg46
g260
sbatRp267
(dp268
g15
I00
sg16
(dp269
sg22
S'tr_012'
p270
sg45
g264
sbag1
(g5
g3
(lp271
g1
(g29
g3
(lp272
g1
(g7
g3
(lp273
S'Channel Interleave Way Support'
p274
atRp275
(dp276
g15
I00
sg16
(dp277
sg21
g274
sg22
g23
sbag1
(g7
g3
(lp278
S' 1; 2; 3; 4; 6'
p279
atRp280
(dp281
g15
I00
sg16
(dp282
sg21
g279
sg22
S'td_001'
p283
sbatRp284
(dp285
g15
I01
sg16
(dp286
sg23
g275
sg22
g45
sg46
g280
sbatRp287
(dp288
g15
I00
sg16
(dp289
sg22
S'tr_013'
p290
sg45
g284
sbag1
(g5
g3
(lp291
g1
(g29
g3
(lp292
g1
(g7
g3
(lp293
S'Memory Controller Interleave Support'
p294
atRp295
(dp296
g15
I00
sg16
(dp297
sg21
g294
sg22
g23
sbag1
(g7
g3
(lp298
S' 12'
p299
atRp300
(dp301
g15
I00
sg16
(dp302
sg21
g299
sg22
S'td_001'
p303
sbatRp304
(dp305
g15
I01
sg16
(dp306
sg23
g295
sg22
g45
sg46
g300
sbatRp307
(dp308
g15
I00
sg16
(dp309
sg22
S'tr_014'
p310
sg45
g304
sbag1
(g5
g3
(lp311
g1
(g29
g3
(lp312
g1
(g7
g3
(lp313
S'Platform Config Supported'
p314
atRp315
(dp316
g15
I00
sg16
(dp317
sg21
g314
sg22
g23
sbag1
(g7
g3
(lp318
S' TRUE'
p319
atRp320
(dp321
g15
I00
sg16
(dp322
sg21
g319
sg22
S'td_001'
p323
sbatRp324
(dp325
g15
I01
sg16
(dp326
sg23
g315
sg22
g45
sg46
g320
sbatRp327
(dp328
g15
I00
sg16
(dp329
sg22
S'tr_015'
p330
sg45
g324
sbag1
(g5
g3
(lp331
g1
(g29
g3
(lp332
g1
(g7
g3
(lp333
S'Current Volatile Mode'
p334
atRp335
(dp336
g15
I00
sg16
(dp337
sg21
g334
sg22
g23
sbag1
(g7
g3
(lp338
S' Memory Mode'
p339
atRp340
(dp341
g15
I00
sg16
(dp342
sg21
g339
sg22
S'td_001'
p343
sbatRp344
(dp345
g15
I01
sg16
(dp346
sg23
g335
sg22
g45
sg46
g340
sbatRp347
(dp348
g15
I00
sg16
(dp349
sg22
S'tr_016'
p350
sg45
g344
sbag1
(g5
g3
(lp351
g1
(g29
g3
(lp352
g1
(g7
g3
(lp353
S'Current App Direct Mode'
p354
atRp355
(dp356
g15
I00
sg16
(dp357
sg21
g354
sg22
g23
sbag1
(g7
g3
(lp358
S' App Direct'
p359
atRp360
(dp361
g15
I00
sg16
(dp362
sg21
g359
sg22
S'td_001'
p363
sbatRp364
(dp365
g15
I01
sg16
(dp366
sg23
g355
sg22
g45
sg46
g360
sbatRp367
(dp368
g15
I00
sg16
(dp369
sg22
S'tr_017'
p370
sg45
g364
sbag1
(g5
g3
(lp371
g1
(g29
g3
(lp372
g1
(g7
g3
(lp373
S'DimmUID'
p374
atRp375
(dp376
g15
I00
sg16
(dp377
sg21
g374
sg22
g23
sbag1
(g7
g3
(lp378
S' 8980-a1-4416-35393030'
p379
atRp380
(dp381
g15
I00
sg16
(dp382
sg21
g379
sg22
S'td_001'
p383
sbatRp384
(dp385
g15
I01
sg16
(dp386
sg23
g375
sg22
g45
sg46
g380
sbatRp387
(dp388
g15
I00
sg16
(dp389
sg22
S'tr_018'
p390
sg45
g384
sbag1
(g5
g3
(lp391
g1
(g29
g3
(lp392
g1
(g7
g3
(lp393
S'Manufacturer ID'
p394
atRp395
(dp396
g15
I00
sg16
(dp397
sg21
g394
sg22
g23
sbag1
(g7
g3
(lp398
S' 0x8980'
p399
atRp400
(dp401
g15
I00
sg16
(dp402
sg21
g399
sg22
S'td_001'
p403
sbatRp404
(dp405
g15
I01
sg16
(dp406
sg23
g395
sg22
g45
sg46
g400
sbatRp407
(dp408
g15
I00
sg16
(dp409
sg22
S'tr_019'
p410
sg45
g404
sbag1
(cpyh
th
p411
g3
(ltRp412
(dp413
g15
I00
sg16
(dp414
sg22
S'th'
p415
sbag1
(g411
g3
(ltRp416
(dp417
g15
I00
sg16
(dp418
sg22
S'th_001'
p419
sbatRp420
(dp421
g22
S'table'
p422
sS'tr_012'
p423
g267
sS'tr_013'
p424
g287
sS'tr_010'
p425
g227
sS'tr_011'
p426
g247
sS'tr_016'
p427
g347
sS'tr_017'
p428
g367
sS'tr_014'
p429
g307
sS'tr_015'
p430
g327
sS'tr_018'
p431
g387
sS'tr_019'
p432
g407
sg27
g24
sS'th_001'
p433
g416
sg415
g412
sg15
I00
sS'tr_001'
p434
g47
sS'tr_003'
p435
g87
sS'tr_002'
p436
g67
sS'tr_005'
p437
g127
sS'tr_004'
p438
g107
sS'tr_007'
p439
g167
sS'tr_006'
p440
g147
sS'tr_009'
p441
g207
sS'tr_008'
p442
g187
sg16
(dp443
S'cellpadding'
p444
S'0'
sS'cellspacing'
p445
S'0'
sS'border'
p446
S'1'
sS'cl'
p447
S'table1'
p448
ssbatRp449
(dp450
g15
I00
sg16
(dp451
g447
S'table0_td'
p452
ssg22
g23
sg422
g420
sbatRp453
(dp454
g15
I00
sg16
(dp455
sg23
g449
sg22
g27
sbatRp456
(dp457
g15
I00
sg16
(dp458
g444
S'0'
sg445
S'0'
sg447
S'table0'
p459
ssg27
g453
sg22
g422
sb.