ccopy_reg
_reconstructor
p1
(cpyh
table
p2
c__builtin__
list
p3
(lp4
g1
(cpyh
tr
p5
g3
(lp6
g1
(cpyh
td
p7
g3
(lp8
g1
(g2
g3
(lp9
g1
(g5
g3
(lp10
g1
(g7
g3
(lp11
S'OsInfo'
p12
atRp13
(dp14
S'isSeq'
p15
I00
sS'attributes'
p16
(dp17
S'colspan'
p18
I2
sS'bgColor'
p19
S'#E9DEDE'
p20
ssS'content'
p21
g12
sS'id'
p22
S'td'
p23
sbatRp24
(dp25
g15
I00
sg16
(dp26
sg23
g13
sg22
S'tr'
p27
sbag1
(g5
g3
(lp28
g1
(cpyh
Tag
p29
g3
(lp30
g1
(g7
g3
(lp31
S'Build Number'
p32
atRp33
(dp34
g15
I00
sg16
(dp35
sg21
g32
sg22
g23
sbag1
(g7
g3
(lp36
S' 9600'
p37
atRp38
(dp39
g15
I00
sg16
(dp40
sg21
g37
sg22
S'td_001'
p41
sbatRp42
(dp43
g15
I01
sg16
(dp44
sg23
g33
sg22
S'sequence'
p45
sg41
g38
sbatRp46
(dp47
g15
I00
sg16
(dp48
sg22
S'tr_001'
p49
sg45
g42
sbag1
(g5
g3
(lp50
g1
(g29
g3
(lp51
g1
(g7
g3
(lp52
S'Build Type'
p53
atRp54
(dp55
g15
I00
sg16
(dp56
sg21
g53
sg22
g23
sbag1
(g7
g3
(lp57
S' Multiprocessor Free'
p58
atRp59
(dp60
g15
I00
sg16
(dp61
sg21
g58
sg22
S'td_001'
p62
sbatRp63
(dp64
g15
I01
sg16
(dp65
sg23
g54
sg22
g45
sg41
g59
sbatRp66
(dp67
g15
I00
sg16
(dp68
sg22
S'tr_002'
p69
sg45
g63
sbag1
(g5
g3
(lp70
g1
(g29
g3
(lp71
g1
(g7
g3
(lp72
S'Caption'
p73
atRp74
(dp75
g15
I00
sg16
(dp76
sg21
g73
sg22
g23
sbag1
(g7
g3
(lp77
S' Microsoft Windows Server 2012 R2 Datacenter'
p78
atRp79
(dp80
g15
I00
sg16
(dp81
sg21
g78
sg22
S'td_001'
p82
sbatRp83
(dp84
g15
I01
sg16
(dp85
sg23
g74
sg22
g45
sg41
g79
sbatRp86
(dp87
g15
I00
sg16
(dp88
sg22
S'tr_003'
p89
sg45
g83
sbag1
(g5
g3
(lp90
g1
(g29
g3
(lp91
g1
(g7
g3
(lp92
S'Code Set'
p93
atRp94
(dp95
g15
I00
sg16
(dp96
sg21
g93
sg22
g23
sbag1
(g7
g3
(lp97
S' 1252'
p98
atRp99
(dp100
g15
I00
sg16
(dp101
sg21
g98
sg22
S'td_001'
p102
sbatRp103
(dp104
g15
I01
sg16
(dp105
sg23
g94
sg22
g45
sg41
g99
sbatRp106
(dp107
g15
I00
sg16
(dp108
sg22
S'tr_004'
p109
sg45
g103
sbag1
(g5
g3
(lp110
g1
(g29
g3
(lp111
g1
(g7
g3
(lp112
S'Country Code'
p113
atRp114
(dp115
g15
I00
sg16
(dp116
sg21
g113
sg22
g23
sbag1
(g7
g3
(lp117
S' 1'
p118
atRp119
(dp120
g15
I00
sg16
(dp121
sg21
g118
sg22
S'td_001'
p122
sbatRp123
(dp124
g15
I01
sg16
(dp125
sg23
g114
sg22
g45
sg41
g119
sbatRp126
(dp127
g15
I00
sg16
(dp128
sg22
S'tr_005'
p129
sg45
g123
sbag1
(g5
g3
(lp130
g1
(g29
g3
(lp131
g1
(g7
g3
(lp132
S'Current Time Zone'
p133
atRp134
(dp135
g15
I00
sg16
(dp136
sg21
g133
sg22
g23
sbag1
(g7
g3
(lp137
S' GMT  -8:0'
p138
atRp139
(dp140
g15
I00
sg16
(dp141
sg21
g138
sg22
S'td_001'
p142
sbatRp143
(dp144
g15
I01
sg16
(dp145
sg23
g134
sg22
g45
sg41
g139
sbatRp146
(dp147
g15
I00
sg16
(dp148
sg22
S'tr_006'
p149
sg45
g143
sbag1
(g5
g3
(lp150
g1
(g29
g3
(lp151
g1
(g7
g3
(lp152
S'Encryption Level'
p153
atRp154
(dp155
g15
I00
sg16
(dp156
sg21
g153
sg22
g23
sbag1
(g7
g3
(lp157
S' 256'
p158
atRp159
(dp160
g15
I00
sg16
(dp161
sg21
g158
sg22
S'td_001'
p162
sbatRp163
(dp164
g15
I01
sg16
(dp165
sg23
g154
sg22
g45
sg41
g159
sbatRp166
(dp167
g15
I00
sg16
(dp168
sg22
S'tr_007'
p169
sg45
g163
sbag1
(g5
g3
(lp170
g1
(g29
g3
(lp171
g1
(g7
g3
(lp172
S'Install Date'
p173
atRp174
(dp175
g15
I00
sg16
(dp176
sg21
g173
sg22
g23
sbag1
(g7
g3
(lp177
S' 23/12/2016'
p178
atRp179
(dp180
g15
I00
sg16
(dp181
sg21
g178
sg22
S'td_001'
p182
sbatRp183
(dp184
g15
I01
sg16
(dp185
sg23
g174
sg22
g45
sg41
g179
sbatRp186
(dp187
g15
I00
sg16
(dp188
sg22
S'tr_008'
p189
sg45
g183
sbag1
(g5
g3
(lp190
g1
(g29
g3
(lp191
g1
(g7
g3
(lp192
S'Locale'
p193
atRp194
(dp195
g15
I00
sg16
(dp196
sg21
g193
sg22
g23
sbag1
(g7
g3
(lp197
S' 0409'
p198
atRp199
(dp200
g15
I00
sg16
(dp201
sg21
g198
sg22
S'td_001'
p202
sbatRp203
(dp204
g15
I01
sg16
(dp205
sg23
g194
sg22
g45
sg41
g199
sbatRp206
(dp207
g15
I00
sg16
(dp208
sg22
S'tr_009'
p209
sg45
g203
sbag1
(g5
g3
(lp210
g1
(g29
g3
(lp211
g1
(g7
g3
(lp212
S'Manufacturer'
p213
atRp214
(dp215
g15
I00
sg16
(dp216
sg21
g213
sg22
g23
sbag1
(g7
g3
(lp217
S' Microsoft Corporation'
p218
atRp219
(dp220
g15
I00
sg16
(dp221
sg21
g218
sg22
S'td_001'
p222
sbatRp223
(dp224
g15
I01
sg16
(dp225
sg23
g214
sg22
g45
sg41
g219
sbatRp226
(dp227
g15
I00
sg16
(dp228
sg22
S'tr_010'
p229
sg45
g223
sbag1
(g5
g3
(lp230
g1
(g29
g3
(lp231
g1
(g7
g3
(lp232
S'Number Of Users'
p233
atRp234
(dp235
g15
I00
sg16
(dp236
sg21
g233
sg22
g23
sbag1
(g7
g3
(lp237
S' 3'
p238
atRp239
(dp240
g15
I00
sg16
(dp241
sg21
g238
sg22
S'td_001'
p242
sbatRp243
(dp244
g15
I01
sg16
(dp245
sg23
g234
sg22
g45
sg41
g239
sbatRp246
(dp247
g15
I00
sg16
(dp248
sg22
S'tr_011'
p249
sg45
g243
sbag1
(g5
g3
(lp250
g1
(g29
g3
(lp251
g1
(g7
g3
(lp252
S'Organization'
p253
atRp254
(dp255
g15
I00
sg16
(dp256
sg21
g253
sg22
g23
sbag1
(g7
g3
(lp257
S' Not Available'
p258
atRp259
(dp260
g15
I00
sg16
(dp261
sg21
g258
sg22
S'td_001'
p262
sbatRp263
(dp264
g15
I01
sg16
(dp265
sg23
g254
sg22
g45
sg41
g259
sbatRp266
(dp267
g15
I00
sg16
(dp268
sg22
S'tr_012'
p269
sg45
g263
sbag1
(g5
g3
(lp270
g1
(g29
g3
(lp271
g1
(g7
g3
(lp272
S'OS Architecture'
p273
atRp274
(dp275
g15
I00
sg16
(dp276
sg21
g273
sg22
g23
sbag1
(g7
g3
(lp277
S' 64-bit'
p278
atRp279
(dp280
g15
I00
sg16
(dp281
sg21
g278
sg22
S'td_001'
p282
sbatRp283
(dp284
g15
I01
sg16
(dp285
sg23
g274
sg22
g45
sg41
g279
sbatRp286
(dp287
g15
I00
sg16
(dp288
sg22
S'tr_013'
p289
sg45
g283
sbag1
(g5
g3
(lp290
g1
(g29
g3
(lp291
g1
(g7
g3
(lp292
S'OS Language'
p293
atRp294
(dp295
g15
I00
sg16
(dp296
sg21
g293
sg22
g23
sbag1
(g7
g3
(lp297
S' English - United States'
p298
atRp299
(dp300
g15
I00
sg16
(dp301
sg21
g298
sg22
S'td_001'
p302
sbatRp303
(dp304
g15
I01
sg16
(dp305
sg23
g294
sg22
g45
sg41
g299
sbatRp306
(dp307
g15
I00
sg16
(dp308
sg22
S'tr_014'
p309
sg45
g303
sbag1
(g5
g3
(lp310
g1
(g29
g3
(lp311
g1
(g7
g3
(lp312
S'OS SKU'
p313
atRp314
(dp315
g15
I00
sg16
(dp316
sg21
g313
sg22
g23
sbag1
(g7
g3
(lp317
S' Server Datacenter (full installation)'
p318
atRp319
(dp320
g15
I00
sg16
(dp321
sg21
g318
sg22
S'td_001'
p322
sbatRp323
(dp324
g15
I01
sg16
(dp325
sg23
g314
sg22
g45
sg41
g319
sbatRp326
(dp327
g15
I00
sg16
(dp328
sg22
S'tr_015'
p329
sg45
g323
sbag1
(g5
g3
(lp330
g1
(g29
g3
(lp331
g1
(g7
g3
(lp332
S'OS Type'
p333
atRp334
(dp335
g15
I00
sg16
(dp336
sg21
g333
sg22
g23
sbag1
(g7
g3
(lp337
S' WINNT'
p338
atRp339
(dp340
g15
I00
sg16
(dp341
sg21
g338
sg22
S'td_001'
p342
sbatRp343
(dp344
g15
I01
sg16
(dp345
sg23
g334
sg22
g45
sg41
g339
sbatRp346
(dp347
g15
I00
sg16
(dp348
sg22
S'tr_016'
p349
sg45
g343
sbag1
(g5
g3
(lp350
g1
(g29
g3
(lp351
g1
(g7
g3
(lp352
S'Primary OS'
p353
atRp354
(dp355
g15
I00
sg16
(dp356
sg21
g353
sg22
g23
sbag1
(g7
g3
(lp357
S' TRUE'
p358
atRp359
(dp360
g15
I00
sg16
(dp361
sg21
g358
sg22
S'td_001'
p362
sbatRp363
(dp364
g15
I01
sg16
(dp365
sg23
g354
sg22
g45
sg41
g359
sbatRp366
(dp367
g15
I00
sg16
(dp368
sg22
S'tr_017'
p369
sg45
g363
sbag1
(g5
g3
(lp370
g1
(g29
g3
(lp371
g1
(g7
g3
(lp372
S'Registered User'
p373
atRp374
(dp375
g15
I00
sg16
(dp376
sg21
g373
sg22
g23
sbag1
(g7
g3
(lp377
S' Windows User'
p378
atRp379
(dp380
g15
I00
sg16
(dp381
sg21
g378
sg22
S'td_001'
p382
sbatRp383
(dp384
g15
I01
sg16
(dp385
sg23
g374
sg22
g45
sg41
g379
sbatRp386
(dp387
g15
I00
sg16
(dp388
sg22
S'tr_018'
p389
sg45
g383
sbag1
(g5
g3
(lp390
g1
(g29
g3
(lp391
g1
(g7
g3
(lp392
S'Serial Number'
p393
atRp394
(dp395
g15
I00
sg16
(dp396
sg21
g393
sg22
g23
sbag1
(g7
g3
(lp397
S' 00260-00000-09041-AA112'
p398
atRp399
(dp400
g15
I00
sg16
(dp401
sg21
g398
sg22
S'td_001'
p402
sbatRp403
(dp404
g15
I01
sg16
(dp405
sg23
g394
sg22
g45
sg41
g399
sbatRp406
(dp407
g15
I00
sg16
(dp408
sg22
S'tr_019'
p409
sg45
g403
sbag1
(g5
g3
(lp410
g1
(g29
g3
(lp411
g1
(g7
g3
(lp412
S'Service Pack Version'
p413
atRp414
(dp415
g15
I00
sg16
(dp416
sg21
g413
sg22
g23
sbag1
(g7
g3
(lp417
S' Not Available'
p418
atRp419
(dp420
g15
I00
sg16
(dp421
sg21
g418
sg22
S'td_001'
p422
sbatRp423
(dp424
g15
I01
sg16
(dp425
sg23
g414
sg22
g45
sg41
g419
sbatRp426
(dp427
g15
I00
sg16
(dp428
sg22
S'tr_020'
p429
sg45
g423
sbag1
(g5
g3
(lp430
g1
(g29
g3
(lp431
g1
(g7
g3
(lp432
S'Status'
p433
atRp434
(dp435
g15
I00
sg16
(dp436
sg21
g433
sg22
g23
sbag1
(g7
g3
(lp437
S' OK'
p438
atRp439
(dp440
g15
I00
sg16
(dp441
sg21
g438
sg22
S'td_001'
p442
sbatRp443
(dp444
g15
I01
sg16
(dp445
sg23
g434
sg22
g45
sg41
g439
sbatRp446
(dp447
g15
I00
sg16
(dp448
sg22
S'tr_021'
p449
sg45
g443
sbag1
(g5
g3
(lp450
g1
(g29
g3
(lp451
g1
(g7
g3
(lp452
S'System Directory'
p453
atRp454
(dp455
g15
I00
sg16
(dp456
sg21
g453
sg22
g23
sbag1
(g7
g3
(lp457
S' C:\\windows\\system32'
p458
atRp459
(dp460
g15
I00
sg16
(dp461
sg21
g458
sg22
S'td_001'
p462
sbatRp463
(dp464
g15
I01
sg16
(dp465
sg23
g454
sg22
g45
sg41
g459
sbatRp466
(dp467
g15
I00
sg16
(dp468
sg22
S'tr_022'
p469
sg45
g463
sbag1
(g5
g3
(lp470
g1
(g29
g3
(lp471
g1
(g7
g3
(lp472
S'System Drive'
p473
atRp474
(dp475
g15
I00
sg16
(dp476
sg21
g473
sg22
g23
sbag1
(g7
g3
(lp477
S' C:'
p478
atRp479
(dp480
g15
I00
sg16
(dp481
sg21
g478
sg22
S'td_001'
p482
sbatRp483
(dp484
g15
I01
sg16
(dp485
sg23
g474
sg22
g45
sg41
g479
sbatRp486
(dp487
g15
I00
sg16
(dp488
sg22
S'tr_023'
p489
sg45
g483
sbag1
(g5
g3
(lp490
g1
(g29
g3
(lp491
g1
(g7
g3
(lp492
S'Version'
p493
atRp494
(dp495
g15
I00
sg16
(dp496
sg21
g493
sg22
g23
sbag1
(g7
g3
(lp497
S' 6.3.9600'
p498
atRp499
(dp500
g15
I00
sg16
(dp501
sg21
g498
sg22
S'td_001'
p502
sbatRp503
(dp504
g15
I01
sg16
(dp505
sg23
g494
sg22
g45
sg41
g499
sbatRp506
(dp507
g15
I00
sg16
(dp508
sg22
S'tr_024'
p509
sg45
g503
sbag1
(g5
g3
(lp510
g1
(g29
g3
(lp511
g1
(g7
g3
(lp512
S'WIMBoot Configuration'
p513
atRp514
(dp515
g15
I00
sg16
(dp516
sg21
g513
sg22
g23
sbag1
(g7
g3
(lp517
S' Not Enabled'
p518
atRp519
(dp520
g15
I00
sg16
(dp521
sg21
g518
sg22
S'td_001'
p522
sbatRp523
(dp524
g15
I01
sg16
(dp525
sg23
g514
sg22
g45
sg41
g519
sbatRp526
(dp527
g15
I00
sg16
(dp528
sg22
S'tr_025'
p529
sg45
g523
sbag1
(g5
g3
(lp530
g1
(g29
g3
(lp531
g1
(g7
g3
(lp532
S'Windows Directory'
p533
atRp534
(dp535
g15
I00
sg16
(dp536
sg21
g533
sg22
g23
sbag1
(g7
g3
(lp537
S' C:\\windows'
p538
atRp539
(dp540
g15
I00
sg16
(dp541
sg21
g538
sg22
S'td_001'
p542
sbatRp543
(dp544
g15
I01
sg16
(dp545
sg23
g534
sg22
g45
sg41
g539
sbatRp546
(dp547
g15
I00
sg16
(dp548
sg22
S'tr_026'
p549
sg45
g543
sbag1
(g5
g3
(lp550
g1
(g29
g3
(lp551
g1
(g7
g3
(lp552
S'WQL'
p553
atRp554
(dp555
g15
I00
sg16
(dp556
sg21
g553
sg22
g23
sbag1
(g7
g3
(lp557
S' Unknown'
p558
atRp559
(dp560
g15
I00
sg16
(dp561
sg21
g558
sg22
S'td_001'
p562
sbatRp563
(dp564
g15
I01
sg16
(dp565
sg23
g554
sg22
g45
sg41
g559
sbatRp566
(dp567
g15
I00
sg16
(dp568
sg22
S'tr_027'
p569
sg45
g563
sbag1
(cpyh
th
p570
g3
(ltRp571
(dp572
g15
I00
sg16
(dp573
sg22
S'th'
p574
sbag1
(g570
g3
(ltRp575
(dp576
g15
I00
sg16
(dp577
sg22
S'th_001'
p578
sbatRp579
(dp580
g22
S'table'
p581
sg269
g266
sg289
g286
sg229
g226
sg249
g246
sg349
g346
sg369
g366
sg309
g306
sg329
g326
sg389
g386
sg409
g406
sg27
g24
sg578
g575
sg574
g571
sg15
I00
sg49
g46
sg89
g86
sg69
g66
sg129
g126
sg109
g106
sg169
g166
sg149
g146
sg209
g206
sg189
g186
sg449
g446
sg429
g426
sg569
g566
sg549
g546
sg529
g526
sg509
g506
sg489
g486
sg469
g466
sg16
(dp582
S'cellpadding'
p583
S'0'
sS'cellspacing'
p584
S'0'
sS'border'
p585
S'1'
sS'cl'
p586
S'table1'
p587
ssbatRp588
(dp589
g15
I00
sg16
(dp590
g586
S'table0_td'
p591
ssg22
g23
sg581
g579
sbatRp592
(dp593
g15
I00
sg16
(dp594
sg23
g588
sg22
g27
sbatRp595
(dp596
g15
I00
sg16
(dp597
g583
S'0'
sg584
S'0'
sg586
S'table0'
p598
ssg27
g592
sg22
g581
sb.