ccopy_reg
_reconstructor
p1
(cpyh
table
p2
c__builtin__
list
p3
(lp4
g1
(cpyh
tr
p5
g3
(lp6
g1
(cpyh
td
p7
g3
(lp8
g1
(g2
g3
(lp9
g1
(g5
g3
(lp10
g1
(g7
g3
(lp11
S'SMBIOS'
p12
atRp13
(dp14
S'isSeq'
p15
I00
sS'attributes'
p16
(dp17
S'colspan'
p18
I2
sS'bgColor'
p19
S'#E9DEDE'
p20
ssS'content'
p21
g12
sS'id'
p22
S'td'
p23
sbatRp24
(dp25
g15
I00
sg16
(dp26
sg23
g13
sg22
S'tr'
p27
sbag1
(g5
g3
(lp28
g1
(cpyh
Tag
p29
g3
(lp30
g1
(g7
g3
(lp31
S'Description'
p32
atRp33
(dp34
g15
I00
sg16
(dp35
sg21
g32
sg22
g23
sbag1
(g7
g3
(lp36
S' LM78A'
p37
atRp38
(dp39
g15
I00
sg16
(dp40
sg21
g37
sg22
S'td_001'
p41
sbatRp42
(dp43
g15
I01
sg16
(dp44
sg23
g33
sg22
S'sequence'
p45
sg41
g38
sbatRp46
(dp47
g15
I00
sg16
(dp48
sg22
S'tr_001'
p49
sg45
g42
sbag1
(g5
g3
(lp50
g1
(g29
g3
(lp51
g1
(g7
g3
(lp52
S'Description'
p53
atRp54
(dp55
g15
I00
sg16
(dp56
sg21
g53
sg22
g23
sbag1
(g7
g3
(lp57
S' No errors detected'
p58
atRp59
(dp60
g15
I00
sg16
(dp61
sg21
g58
sg22
S'td_001'
p62
sbatRp63
(dp64
g15
I01
sg16
(dp65
sg23
g54
sg22
g45
sg41
g59
sbatRp66
(dp67
g15
I00
sg16
(dp68
sg22
S'tr_002'
p69
sg45
g63
sbag1
(g5
g3
(lp70
g1
(g29
g3
(lp71
g1
(g7
g3
(lp72
S'Description'
p73
atRp74
(dp75
g15
I00
sg16
(dp76
sg21
g73
sg22
g23
sbag1
(g7
g3
(lp77
S' UNKNOWN'
p78
atRp79
(dp80
g15
I00
sg16
(dp81
sg21
g78
sg22
S'td_001'
p82
sbatRp83
(dp84
g15
I01
sg16
(dp85
sg23
g74
sg22
g45
sg41
g79
sbatRp86
(dp87
g15
I00
sg16
(dp88
sg22
S'tr_003'
p89
sg45
g83
sbag1
(g5
g3
(lp90
g1
(g29
g3
(lp91
g1
(g7
g3
(lp92
S'Description'
p93
atRp94
(dp95
g15
I00
sg16
(dp96
sg21
g93
sg22
g23
sbag1
(g7
g3
(lp97
S' To Be Filled By O.E.M.'
p98
atRp99
(dp100
g15
I00
sg16
(dp101
sg21
g98
sg22
S'td_001'
p102
sbatRp103
(dp104
g15
I01
sg16
(dp105
sg23
g94
sg22
g45
sg41
g99
sbatRp106
(dp107
g15
I00
sg16
(dp108
sg22
S'tr_004'
p109
sg45
g103
sbag1
(cpyh
th
p110
g3
(ltRp111
(dp112
g15
I00
sg16
(dp113
sg22
S'th'
p114
sbag1
(g110
g3
(ltRp115
(dp116
g15
I00
sg16
(dp117
sg22
S'th_001'
p118
sbatRp119
(dp120
g49
g46
sg89
g86
sg69
g66
sg109
g106
sg118
g115
sg27
g24
sg114
g111
sg15
I00
sg16
(dp121
S'cellpadding'
p122
S'0'
sS'cellspacing'
p123
S'0'
sS'border'
p124
S'1'
sS'cl'
p125
S'table1'
p126
ssg22
S'table'
p127
sbatRp128
(dp129
g15
I00
sg16
(dp130
g125
S'table0_td'
p131
ssg22
g23
sg127
g119
sbatRp132
(dp133
g15
I00
sg16
(dp134
sg23
g128
sg22
g27
sbatRp135
(dp136
g15
I00
sg16
(dp137
g122
S'0'
sg123
S'0'
sg125
S'table0'
p138
ssg27
g132
sg22
g127
sb.