ccopy_reg
_reconstructor
p1
(cpyh
table
p2
c__builtin__
list
p3
(lp4
g1
(cpyh
tr
p5
g3
(lp6
g1
(cpyh
td
p7
g3
(lp8
g1
(g2
g3
(lp9
g1
(g5
g3
(lp10
g1
(g7
g3
(lp11
S'SMBIOS'
p12
atRp13
(dp14
S'isSeq'
p15
I00
sS'attributes'
p16
(dp17
S'colspan'
p18
I2
sS'bgColor'
p19
S'#E9DEDE'
p20
ssS'content'
p21
g12
sS'id'
p22
S'td'
p23
sbatRp24
(dp25
g15
I00
sg16
(dp26
sg23
g13
sg22
S'tr'
p27
sbag1
(g5
g3
(lp28
g1
(cpyh
Tag
p29
g3
(lp30
g1
(g7
g3
(lp31
S'BIOS Vendor'
p32
atRp33
(dp34
g15
I00
sg16
(dp35
sg21
g32
sg22
g23
sbag1
(g7
g3
(lp36
S' Intel Corporation'
p37
atRp38
(dp39
g15
I00
sg16
(dp40
sg21
g37
sg22
S'td_001'
p41
sbatRp42
(dp43
g15
I01
sg16
(dp44
sg23
g33
sg22
S'sequence'
p45
sg41
g38
sbatRp46
(dp47
g15
I00
sg16
(dp48
sg22
S'tr_001'
p49
sg45
g42
sbag1
(g5
g3
(lp50
g1
(g29
g3
(lp51
g1
(g7
g3
(lp52
S'BIOS Version'
p53
atRp54
(dp55
g15
I00
sg16
(dp56
sg21
g53
sg22
g23
sbag1
(g7
g3
(lp57
S' PLYXCRB1.86B.1001.D66.1701302155'
p58
atRp59
(dp60
g15
I00
sg16
(dp61
sg21
g58
sg22
S'td_001'
p62
sbatRp63
(dp64
g15
I01
sg16
(dp65
sg23
g54
sg22
g45
sg41
g59
sbatRp66
(dp67
g15
I00
sg16
(dp68
sg22
S'tr_002'
p69
sg45
g63
sbag1
(g5
g3
(lp70
g1
(g29
g3
(lp71
g1
(g7
g3
(lp72
S'BIOS Release Date'
p73
atRp74
(dp75
g15
I00
sg16
(dp76
sg21
g73
sg22
g23
sbag1
(g7
g3
(lp77
S' 01/30/2017'
p78
atRp79
(dp80
g15
I00
sg16
(dp81
sg21
g78
sg22
S'td_001'
p82
sbatRp83
(dp84
g15
I01
sg16
(dp85
sg23
g74
sg22
g45
sg41
g79
sbatRp86
(dp87
g15
I00
sg16
(dp88
sg22
S'tr_003'
p89
sg45
g83
sbag1
(g5
g3
(lp90
g1
(g29
g3
(lp91
g1
(g7
g3
(lp92
S'BIOS ROM Size'
p93
atRp94
(dp95
g15
I00
sg16
(dp96
sg21
g93
sg22
g23
sbag1
(g7
g3
(lp97
S' 16384 KB'
p98
atRp99
(dp100
g15
I00
sg16
(dp101
sg21
g98
sg22
S'td_001'
p102
sbatRp103
(dp104
g15
I01
sg16
(dp105
sg23
g94
sg22
g45
sg41
g99
sbatRp106
(dp107
g15
I00
sg16
(dp108
sg22
S'tr_004'
p109
sg45
g103
sbag1
(g5
g3
(lp110
g1
(g29
g3
(lp111
g1
(g7
g3
(lp112
S'BIOS Characteristics Not Supported'
p113
atRp114
(dp115
g15
I00
sg16
(dp116
sg21
g113
sg22
g23
sbag1
(g7
g3
(lp117
S' No'
p118
atRp119
(dp120
g15
I00
sg16
(dp121
sg21
g118
sg22
S'td_001'
p122
sbatRp123
(dp124
g15
I01
sg16
(dp125
sg23
g114
sg22
g45
sg41
g119
sbatRp126
(dp127
g15
I00
sg16
(dp128
sg22
S'tr_005'
p129
sg45
g123
sbag1
(g5
g3
(lp130
g1
(g29
g3
(lp131
g1
(g7
g3
(lp132
S'BIOS is Upgradeable (Flash)'
p133
atRp134
(dp135
g15
I00
sg16
(dp136
sg21
g133
sg22
g23
sbag1
(g7
g3
(lp137
S' Yes'
p138
atRp139
(dp140
g15
I00
sg16
(dp141
sg21
g138
sg22
S'td_001'
p142
sbatRp143
(dp144
g15
I01
sg16
(dp145
sg23
g134
sg22
g45
sg41
g139
sbatRp146
(dp147
g15
I00
sg16
(dp148
sg22
S'tr_006'
p149
sg45
g143
sbag1
(g5
g3
(lp150
g1
(g29
g3
(lp151
g1
(g7
g3
(lp152
S'BIOS shadowing is allowed'
p153
atRp154
(dp155
g15
I00
sg16
(dp156
sg21
g153
sg22
g23
sbag1
(g7
g3
(lp157
S' Yes'
p158
atRp159
(dp160
g15
I00
sg16
(dp161
sg21
g158
sg22
S'td_001'
p162
sbatRp163
(dp164
g15
I01
sg16
(dp165
sg23
g154
sg22
g45
sg41
g159
sbatRp166
(dp167
g15
I00
sg16
(dp168
sg22
S'tr_007'
p169
sg45
g163
sbag1
(g5
g3
(lp170
g1
(g29
g3
(lp171
g1
(g7
g3
(lp172
S'BIOS ROM is socketed'
p173
atRp174
(dp175
g15
I00
sg16
(dp176
sg21
g173
sg22
g23
sbag1
(g7
g3
(lp177
S' No'
p178
atRp179
(dp180
g15
I00
sg16
(dp181
sg21
g178
sg22
S'td_001'
p182
sbatRp183
(dp184
g15
I01
sg16
(dp185
sg23
g174
sg22
g45
sg41
g179
sbatRp186
(dp187
g15
I00
sg16
(dp188
sg22
S'tr_008'
p189
sg45
g183
sbag1
(g5
g3
(lp190
g1
(g29
g3
(lp191
g1
(g7
g3
(lp192
S'BIOS Boot Specification supported'
p193
atRp194
(dp195
g15
I00
sg16
(dp196
sg21
g193
sg22
g23
sbag1
(g7
g3
(lp197
S' Yes'
p198
atRp199
(dp200
g15
I00
sg16
(dp201
sg21
g198
sg22
S'td_001'
p202
sbatRp203
(dp204
g15
I01
sg16
(dp205
sg23
g194
sg22
g45
sg41
g199
sbatRp206
(dp207
g15
I00
sg16
(dp208
sg22
S'tr_009'
p209
sg45
g203
sbag1
(g5
g3
(lp210
g1
(g29
g3
(lp211
g1
(g7
g3
(lp212
S'System BIOS Minor Release'
p213
atRp214
(dp215
g15
I00
sg16
(dp216
sg21
g213
sg22
g23
sbag1
(g7
g3
(lp217
S' 0'
p218
atRp219
(dp220
g15
I00
sg16
(dp221
sg21
g218
sg22
S'td_001'
p222
sbatRp223
(dp224
g15
I01
sg16
(dp225
sg23
g214
sg22
g45
sg41
g219
sbatRp226
(dp227
g15
I00
sg16
(dp228
sg22
S'tr_010'
p229
sg45
g223
sbag1
(g5
g3
(lp230
g1
(g29
g3
(lp231
g1
(g7
g3
(lp232
S'System BIOS Major Release'
p233
atRp234
(dp235
g15
I00
sg16
(dp236
sg21
g233
sg22
g23
sbag1
(g7
g3
(lp237
S' 0'
p238
atRp239
(dp240
g15
I00
sg16
(dp241
sg21
g238
sg22
S'td_001'
p242
sbatRp243
(dp244
g15
I01
sg16
(dp245
sg23
g234
sg22
g45
sg41
g239
sbatRp246
(dp247
g15
I00
sg16
(dp248
sg22
S'tr_011'
p249
sg45
g243
sbag1
(cpyh
th
p250
g3
(ltRp251
(dp252
g15
I00
sg16
(dp253
sg22
S'th'
p254
sbag1
(g250
g3
(ltRp255
(dp256
g15
I00
sg16
(dp257
sg22
S'th_001'
p258
sbatRp259
(dp260
g49
g46
sg89
g86
sg69
g66
sg129
g126
sg109
g106
sg169
g166
sg149
g146
sg209
g206
sg189
g186
sg27
g24
sg229
g226
sg249
g246
sg258
g255
sg254
g251
sg15
I00
sg16
(dp261
S'cellpadding'
p262
S'0'
sS'cellspacing'
p263
S'0'
sS'border'
p264
S'1'
sS'cl'
p265
S'table1'
p266
ssg22
S'table'
p267
sbatRp268
(dp269
g15
I00
sg16
(dp270
g265
S'table0_td'
p271
ssg22
g23
sg267
g259
sbatRp272
(dp273
g15
I00
sg16
(dp274
sg23
g268
sg22
g27
sbatRp275
(dp276
g15
I00
sg16
(dp277
g262
S'0'
sg263
S'0'
sg265
S'table0'
p278
ssg27
g272
sg22
g267
sb.