ccopy_reg
_reconstructor
p1
(cpyh
table
p2
c__builtin__
list
p3
(lp4
g1
(cpyh
tr
p5
g3
(lp6
g1
(cpyh
td
p7
g3
(lp8
g1
(g2
g3
(lp9
g1
(g5
g3
(lp10
g1
(g7
g3
(lp11
S'SMBIOS'
p12
atRp13
(dp14
S'isSeq'
p15
I00
sS'attributes'
p16
(dp17
S'colspan'
p18
I2
sS'bgColor'
p19
S'#E9DEDE'
p20
ssS'content'
p21
g12
sS'id'
p22
S'td'
p23
sbatRp24
(dp25
g15
I00
sg16
(dp26
sg23
g13
sg22
S'tr'
p27
sbag1
(g5
g3
(lp28
g1
(cpyh
Tag
p29
g3
(lp30
g1
(g7
g3
(lp31
S'BIOS Vendor'
p32
atRp33
(dp34
g15
I00
sg16
(dp35
sg21
g32
sg22
g23
sbag1
(g7
g3
(lp36
S' Intel Corporation'
p37
atRp38
(dp39
g15
I00
sg16
(dp40
sg21
g37
sg22
S'td_001'
p41
sbatRp42
(dp43
g15
I01
sg16
(dp44
sg23
g33
sg22
S'sequence'
p45
sS'td_001'
p46
g38
sbatRp47
(dp48
g15
I00
sg16
(dp49
sg22
S'tr_001'
p50
sg45
g42
sbag1
(g5
g3
(lp51
g1
(g29
g3
(lp52
g1
(g7
g3
(lp53
S'BIOS Version'
p54
atRp55
(dp56
g15
I00
sg16
(dp57
sg21
g54
sg22
g23
sbag1
(g7
g3
(lp58
S' PLYXCRB1.86B.1001.D66.1701302155'
p59
atRp60
(dp61
g15
I00
sg16
(dp62
sg21
g59
sg22
S'td_001'
p63
sbatRp64
(dp65
g15
I01
sg16
(dp66
sg23
g55
sg22
g45
sg46
g60
sbatRp67
(dp68
g15
I00
sg16
(dp69
sg22
S'tr_002'
p70
sg45
g64
sbag1
(g5
g3
(lp71
g1
(g29
g3
(lp72
g1
(g7
g3
(lp73
S'Starting Address Segment'
p74
atRp75
(dp76
g15
I00
sg16
(dp77
sg21
g74
sg22
g23
sbag1
(g7
g3
(lp78
S' F000h'
p79
atRp80
(dp81
g15
I00
sg16
(dp82
sg21
g79
sg22
S'td_001'
p83
sbatRp84
(dp85
g15
I01
sg16
(dp86
sg23
g75
sg22
g45
sg46
g80
sbatRp87
(dp88
g15
I00
sg16
(dp89
sg22
S'tr_003'
p90
sg45
g84
sbag1
(g5
g3
(lp91
g1
(g29
g3
(lp92
g1
(g7
g3
(lp93
S'BIOS Release Date'
p94
atRp95
(dp96
g15
I00
sg16
(dp97
sg21
g94
sg22
g23
sbag1
(g7
g3
(lp98
S' 01/30/2017'
p99
atRp100
(dp101
g15
I00
sg16
(dp102
sg21
g99
sg22
S'td_001'
p103
sbatRp104
(dp105
g15
I01
sg16
(dp106
sg23
g95
sg22
g45
sg46
g100
sbatRp107
(dp108
g15
I00
sg16
(dp109
sg22
S'tr_004'
p110
sg45
g104
sbag1
(g5
g3
(lp111
g1
(g29
g3
(lp112
g1
(g7
g3
(lp113
S'BIOS ROM Size'
p114
atRp115
(dp116
g15
I00
sg16
(dp117
sg21
g114
sg22
g23
sbag1
(g7
g3
(lp118
S' 16384 KB'
p119
atRp120
(dp121
g15
I00
sg16
(dp122
sg21
g119
sg22
S'td_001'
p123
sbatRp124
(dp125
g15
I01
sg16
(dp126
sg23
g115
sg22
g45
sg46
g120
sbatRp127
(dp128
g15
I00
sg16
(dp129
sg22
S'tr_005'
p130
sg45
g124
sbag1
(g5
g3
(lp131
g1
(g29
g3
(lp132
g1
(g7
g3
(lp133
S'BIOS Characteristics Not Supported'
p134
atRp135
(dp136
g15
I00
sg16
(dp137
sg21
g134
sg22
g23
sbag1
(g7
g3
(lp138
S' No'
p139
atRp140
(dp141
g15
I00
sg16
(dp142
sg21
g139
sg22
S'td_001'
p143
sbatRp144
(dp145
g15
I01
sg16
(dp146
sg23
g135
sg22
g45
sg46
g140
sbatRp147
(dp148
g15
I00
sg16
(dp149
sg22
S'tr_006'
p150
sg45
g144
sbag1
(g5
g3
(lp151
g1
(g29
g3
(lp152
g1
(g7
g3
(lp153
S'ISA is supported'
p154
atRp155
(dp156
g15
I00
sg16
(dp157
sg21
g154
sg22
g23
sbag1
(g7
g3
(lp158
S' No'
p159
atRp160
(dp161
g15
I00
sg16
(dp162
sg21
g159
sg22
S'td_001'
p163
sbatRp164
(dp165
g15
I01
sg16
(dp166
sg23
g155
sg22
g45
sg46
g160
sbatRp167
(dp168
g15
I00
sg16
(dp169
sg22
S'tr_007'
p170
sg45
g164
sbag1
(g5
g3
(lp171
g1
(g29
g3
(lp172
g1
(g7
g3
(lp173
S'MCA is supported'
p174
atRp175
(dp176
g15
I00
sg16
(dp177
sg21
g174
sg22
g23
sbag1
(g7
g3
(lp178
S' No'
p179
atRp180
(dp181
g15
I00
sg16
(dp182
sg21
g179
sg22
S'td_001'
p183
sbatRp184
(dp185
g15
I01
sg16
(dp186
sg23
g175
sg22
g45
sg46
g180
sbatRp187
(dp188
g15
I00
sg16
(dp189
sg22
S'tr_008'
p190
sg45
g184
sbag1
(g5
g3
(lp191
g1
(g29
g3
(lp192
g1
(g7
g3
(lp193
S'EISA is supported'
p194
atRp195
(dp196
g15
I00
sg16
(dp197
sg21
g194
sg22
g23
sbag1
(g7
g3
(lp198
S' No'
p199
atRp200
(dp201
g15
I00
sg16
(dp202
sg21
g199
sg22
S'td_001'
p203
sbatRp204
(dp205
g15
I01
sg16
(dp206
sg23
g195
sg22
g45
sg46
g200
sbatRp207
(dp208
g15
I00
sg16
(dp209
sg22
S'tr_009'
p210
sg45
g204
sbag1
(cpyh
th
p211
g3
(ltRp212
(dp213
g15
I00
sg16
(dp214
sg22
S'th'
p215
sbag1
(g211
g3
(ltRp216
(dp217
g15
I00
sg16
(dp218
sg22
S'th_001'
p219
sbatRp220
(dp221
S'tr_001'
p222
g47
sS'tr_003'
p223
g87
sS'tr_002'
p224
g67
sS'tr_005'
p225
g127
sS'tr_004'
p226
g107
sS'tr_007'
p227
g167
sS'tr_006'
p228
g147
sS'tr_009'
p229
g207
sS'tr_008'
p230
g187
sg27
g24
sS'th_001'
p231
g216
sg215
g212
sg15
I00
sg16
(dp232
S'cellpadding'
p233
S'0'
sS'cellspacing'
p234
S'0'
sS'border'
p235
S'1'
sS'cl'
p236
S'table1'
p237
ssg22
S'table'
p238
sbatRp239
(dp240
g15
I00
sg16
(dp241
g236
S'table0_td'
p242
ssg22
g23
sg238
g220
sbatRp243
(dp244
g15
I00
sg16
(dp245
sg23
g239
sg22
g27
sbatRp246
(dp247
g15
I00
sg16
(dp248
g233
S'0'
sg234
S'0'
sg236
S'table0'
p249
ssg27
g243
sg22
g238
sb.